target datalayout = "e-m:e-p270:32:32-p271:32:32-p272:64:64-i64:64-i128:128-f80:128-n8:16:32:64-S128"
target triple = "x86_64-unknown-linux-gnu"

%"class.hermes::vm::HandleBase" = type { ptr }
%"class.hermes::vm::Handle.168" = type { %"class.hermes::vm::HandleBase" }
%class.anon = type { ptr }
%"class.hermes::vm::CallResult.241" = type { %"class.llvh::Optional.242" }
%"class.llvh::Optional.242" = type { %"struct.llvh::optional_detail::OptionalStorage.243" }
%"struct.llvh::optional_detail::OptionalStorage.243" = type { %"struct.llvh::AlignedCharArrayUnion.244", i8, [7 x i8] }
%"struct.llvh::AlignedCharArrayUnion.244" = type { %"struct.llvh::AlignedCharArray.245" }
%"struct.llvh::AlignedCharArray.245" = type { [16 x i8] }
%"class.hermes::vm::SymbolID" = type { i32 }
%"struct.hermes::vm::PropertyFlags" = type { %union.anon }
%union.anon = type { %struct.anon }
%struct.anon = type { i16 }
%"struct.std::pair.247" = type <{ %"class.hermes::vm::Handle.168", i32, [4 x i8] }>

; Function Attrs: mustprogress nounwind uwtable
define linkonce_odr hidden noundef ptr @_ZN4llvh8OptionalISt4pairIN6hermes2vm6HandleINS3_11HiddenClassEEEjEE10getPointerEv(ptr noundef nonnull align 8 dereferenceable(24) %this) #0 comdat align 2 {
entry:
  %this.addr = alloca ptr, align 8
  store ptr %this, ptr %this.addr, align 8
  %this1 = load ptr, ptr %this.addr, align 8
  %Storage = getelementptr inbounds %"class.llvh::Optional.242", ptr %this1, i32 0, i32 0
  %storage = getelementptr inbounds %"struct.llvh::optional_detail::OptionalStorage.243", ptr %Storage, i32 0, i32 0
  %buffer = getelementptr inbounds %"struct.llvh::AlignedCharArray.245", ptr %storage, i32 0, i32 0
  %arraydecay = getelementptr inbounds [16 x i8], ptr %buffer, i64 0, i64 0
  ret ptr %arraydecay
}

; Function Attrs: mustprogress nounwind uwtable
define linkonce_odr hidden noundef nonnull align 8 dereferenceable(12) ptr @_ZNR4llvh8OptionalISt4pairIN6hermes2vm6HandleINS3_11HiddenClassEEEjEEdeEv(ptr noundef nonnull align 8 dereferenceable(24) %this) #0 comdat align 2 {
entry:
  %this.addr = alloca ptr, align 8
  store ptr %this, ptr %this.addr, align 8
  %this1 = load ptr, ptr %this.addr, align 8
  %call = call noundef ptr @_ZN4llvh8OptionalISt4pairIN6hermes2vm6HandleINS3_11HiddenClassEEEjEE10getPointerEv(ptr noundef nonnull align 8 dereferenceable(24) %this1)
  ret ptr %call
}

; Function Attrs: mustprogress nounwind uwtable
define linkonce_odr hidden void @_ZN6hermes2vm8SymbolIDC2Ej(ptr noundef nonnull align 4 dereferenceable(4) %this, i32 noundef %id) unnamed_addr #0 comdat align 2 {
entry:
  %this.addr = alloca ptr, align 8
  %id.addr = alloca i32, align 4
  store ptr %this, ptr %this.addr, align 8
  store i32 %id, ptr %id.addr, align 4
  %this1 = load ptr, ptr %this.addr, align 8
  %id_ = getelementptr inbounds %"class.hermes::vm::SymbolID", ptr %this1, i32 0, i32 0
  %0 = load i32, ptr %id.addr, align 4
  store i32 %0, ptr %id_, align 4
  ret void
}

; Function Attrs: mustprogress nounwind uwtable
define linkonce_odr hidden noundef nonnull align 8 dereferenceable(12) ptr @_ZN6hermes2vm10CallResultISt4pairINS0_6HandleINS0_11HiddenClassEEEjELNS0_6detail20CallResultSpecializeE0EE8getValueEv(ptr noundef nonnull align 8 dereferenceable(24) %this) #0 comdat align 2 {
entry:
  %this.addr = alloca ptr, align 8
  store ptr %this, ptr %this.addr, align 8
  %this1 = load ptr, ptr %this.addr, align 8
  %value_ = getelementptr inbounds %"class.hermes::vm::CallResult.241", ptr %this1, i32 0, i32 0
  %call = call noundef nonnull align 8 dereferenceable(12) ptr @_ZNR4llvh8OptionalISt4pairIN6hermes2vm6HandleINS3_11HiddenClassEEEjEEdeEv(ptr noundef nonnull align 8 dereferenceable(24) %value_)
  ret ptr %call
}

; Function Attrs: mustprogress nounwind uwtable
define linkonce_odr hidden void @_ZN6hermes2vm13PropertyFlagsC2Ev(ptr noundef nonnull align 2 dereferenceable(2) %this) unnamed_addr #0 comdat align 2 {
entry:
  %this.addr = alloca ptr, align 8
  store ptr %this, ptr %this.addr, align 8
  %this1 = load ptr, ptr %this.addr, align 8
  %0 = getelementptr inbounds %"struct.hermes::vm::PropertyFlags", ptr %this1, i32 0, i32 0
  store i16 0, ptr %0, align 2
  ret void
}

; Function Attrs: mustprogress nounwind uwtable
define linkonce_odr hidden i32 @_ZN6hermes2vm8SymbolID12unsafeCreateEj(i32 noundef %id) #0 comdat align 2 {
entry:
  %retval = alloca %"class.hermes::vm::SymbolID", align 4
  %id.addr = alloca i32, align 4
  store i32 %id, ptr %id.addr, align 4
  %0 = load i32, ptr %id.addr, align 4
  call void @_ZN6hermes2vm8SymbolIDC2Ej(ptr noundef nonnull align 4 dereferenceable(4) %retval, i32 noundef %0)
  %coerce.dive = getelementptr inbounds %"class.hermes::vm::SymbolID", ptr %retval, i32 0, i32 0
  %1 = load i32, ptr %coerce.dive, align 4
  ret i32 %1
}

; Function Attrs: mustprogress nounwind uwtable
define linkonce_odr hidden noundef ptr @_ZN6hermes2vm10CallResultISt4pairINS0_6HandleINS0_11HiddenClassEEEjELNS0_6detail20CallResultSpecializeE0EEptEv(ptr noundef nonnull align 8 dereferenceable(24) %this) #0 comdat align 2 {
entry:
  %this.addr = alloca ptr, align 8
  store ptr %this, ptr %this.addr, align 8
  %this1 = load ptr, ptr %this.addr, align 8
  %call = call noundef nonnull align 8 dereferenceable(12) ptr @_ZN6hermes2vm10CallResultISt4pairINS0_6HandleINS0_11HiddenClassEEEjELNS0_6detail20CallResultSpecializeE0EE8getValueEv(ptr noundef nonnull align 8 dereferenceable(24) %this1)
  ret ptr %call
}

; Function Attrs: mustprogress nounwind uwtable
define linkonce_odr hidden i16 @_ZN6hermes2vm13PropertyFlags28defaultNewNamedPropertyFlagsEv() #0 comdat align 2 {
entry:
  %retval = alloca %"struct.hermes::vm::PropertyFlags", align 2
  call void @_ZN6hermes2vm13PropertyFlagsC2Ev(ptr noundef nonnull align 2 dereferenceable(2) %retval)
  %0 = getelementptr inbounds %"struct.hermes::vm::PropertyFlags", ptr %retval, i32 0, i32 0
  %bf.load = load i16, ptr %0, align 2
  %bf.clear = and i16 %bf.load, -3
  %bf.set = or i16 %bf.clear, 2
  store i16 %bf.set, ptr %0, align 2
  %1 = getelementptr inbounds %"struct.hermes::vm::PropertyFlags", ptr %retval, i32 0, i32 0
  %bf.load1 = load i16, ptr %1, align 2
  %bf.clear2 = and i16 %bf.load1, -5
  %bf.set3 = or i16 %bf.clear2, 4
  store i16 %bf.set3, ptr %1, align 2
  %2 = getelementptr inbounds %"struct.hermes::vm::PropertyFlags", ptr %retval, i32 0, i32 0
  %bf.load4 = load i16, ptr %2, align 2
  %bf.clear5 = and i16 %bf.load4, -9
  %bf.set6 = or i16 %bf.clear5, 8
  store i16 %bf.set6, ptr %2, align 2
  %coerce.dive = getelementptr inbounds %"struct.hermes::vm::PropertyFlags", ptr %retval, i32 0, i32 0
  %coerce.dive7 = getelementptr inbounds %union.anon, ptr %coerce.dive, i32 0, i32 0
  %coerce.dive8 = getelementptr inbounds %struct.anon, ptr %coerce.dive7, i32 0, i32 0
  %3 = load i16, ptr %coerce.dive8, align 2
  ret i16 %3
}

; Function Attrs: mustprogress nounwind uwtable
define linkonce_odr hidden i32 @_ZN6hermes2vm10Predefined11getSymbolIDENS1_3StrE(i32 noundef %predefined) #0 comdat {
entry:
  %retval = alloca %"class.hermes::vm::SymbolID", align 4
  %predefined.addr = alloca i32, align 4
  store i32 %predefined, ptr %predefined.addr, align 4
  %0 = load i32, ptr %predefined.addr, align 4
  %call = call i32 @_ZN6hermes2vm8SymbolID12unsafeCreateEj(i32 noundef %0)
  %coerce.dive = getelementptr inbounds %"class.hermes::vm::SymbolID", ptr %retval, i32 0, i32 0
  store i32 %call, ptr %coerce.dive, align 4
  %coerce.dive1 = getelementptr inbounds %"class.hermes::vm::SymbolID", ptr %retval, i32 0, i32 0
  %1 = load i32, ptr %coerce.dive1, align 4
  ret i32 %1
}

; Function Attrs: mustprogress nounwind uwtable
define internal ptr @"_ZZN6hermes2vm8JSRegExp16createMatchClassERNS0_7RuntimeENS0_6HandleINS0_11HiddenClassEEEENK3$_0clES6_NS0_10Predefined3StrE"(ptr noundef nonnull align 8 dereferenceable(8) %this, ptr %clazz.coerce, i32 noundef %name) #0 align 2 {
entry:
  %retval = alloca %"class.hermes::vm::Handle.168", align 8
  %clazz = alloca %"class.hermes::vm::Handle.168", align 8
  %this.addr = alloca ptr, align 8
  %name.addr = alloca i32, align 4
  %added = alloca %"class.hermes::vm::CallResult.241", align 8
  %agg.tmp = alloca %"class.hermes::vm::Handle.168", align 8
  %agg.tmp3 = alloca %"class.hermes::vm::SymbolID", align 4
  %agg.tmp5 = alloca %"struct.hermes::vm::PropertyFlags", align 2
  %coerce.dive = getelementptr inbounds %"class.hermes::vm::Handle.168", ptr %clazz, i32 0, i32 0
  %coerce.dive1 = getelementptr inbounds %"class.hermes::vm::HandleBase", ptr %coerce.dive, i32 0, i32 0
  store ptr %clazz.coerce, ptr %coerce.dive1, align 8
  store ptr %this, ptr %this.addr, align 8
  store i32 %name, ptr %name.addr, align 4
  %this2 = load ptr, ptr %this.addr, align 8
  call void @llvm.memcpy.p0.p0.i64(ptr align 8 %agg.tmp, ptr align 8 %clazz, i64 8, i1 false)
  %0 = getelementptr inbounds %class.anon, ptr %this2, i32 0, i32 0
  %1 = load ptr, ptr %0, align 8
  %2 = load i32, ptr %name.addr, align 4
  %call = call i32 @_ZN6hermes2vm10Predefined11getSymbolIDENS1_3StrE(i32 noundef %2)
  %coerce.dive4 = getelementptr inbounds %"class.hermes::vm::SymbolID", ptr %agg.tmp3, i32 0, i32 0
  store i32 %call, ptr %coerce.dive4, align 4
  %call6 = call i16 @_ZN6hermes2vm13PropertyFlags28defaultNewNamedPropertyFlagsEv()
  %coerce.dive7 = getelementptr inbounds %"struct.hermes::vm::PropertyFlags", ptr %agg.tmp5, i32 0, i32 0
  %coerce.dive8 = getelementptr inbounds %union.anon, ptr %coerce.dive7, i32 0, i32 0
  %coerce.dive9 = getelementptr inbounds %struct.anon, ptr %coerce.dive8, i32 0, i32 0
  store i16 %call6, ptr %coerce.dive9, align 2
  %coerce.dive10 = getelementptr inbounds %"class.hermes::vm::Handle.168", ptr %agg.tmp, i32 0, i32 0
  %coerce.dive11 = getelementptr inbounds %"class.hermes::vm::HandleBase", ptr %coerce.dive10, i32 0, i32 0
  %3 = load ptr, ptr %coerce.dive11, align 8
  %coerce.dive12 = getelementptr inbounds %"class.hermes::vm::SymbolID", ptr %agg.tmp3, i32 0, i32 0
  %4 = load i32, ptr %coerce.dive12, align 4
  %coerce.dive13 = getelementptr inbounds %"struct.hermes::vm::PropertyFlags", ptr %agg.tmp5, i32 0, i32 0
  %coerce.dive14 = getelementptr inbounds %union.anon, ptr %coerce.dive13, i32 0, i32 0
  %coerce.dive15 = getelementptr inbounds %struct.anon, ptr %coerce.dive14, i32 0, i32 0
  %5 = load i16, ptr %coerce.dive15, align 2
  call void @_ZN6hermes2vm11HiddenClass11addPropertyENS0_6HandleIS1_EERNS0_7RuntimeENS0_8SymbolIDENS0_13PropertyFlagsE(ptr sret(%"class.hermes::vm::CallResult.241") align 8 %added, ptr %3, ptr noundef nonnull align 8 dereferenceable(9832) %1, i32 %4, i16 %5)
  %call16 = call noundef ptr @_ZN6hermes2vm10CallResultISt4pairINS0_6HandleINS0_11HiddenClassEEEjELNS0_6detail20CallResultSpecializeE0EEptEv(ptr noundef nonnull align 8 dereferenceable(24) %added)
  %first = getelementptr inbounds %"struct.std::pair.247", ptr %call16, i32 0, i32 0
  call void @llvm.memcpy.p0.p0.i64(ptr align 8 %retval, ptr align 8 %first, i64 8, i1 false)
  %coerce.dive17 = getelementptr inbounds %"class.hermes::vm::Handle.168", ptr %retval, i32 0, i32 0
  %coerce.dive18 = getelementptr inbounds %"class.hermes::vm::HandleBase", ptr %coerce.dive17, i32 0, i32 0
  %6 = load ptr, ptr %coerce.dive18, align 8
  ret ptr %6
}

; Function Attrs: mustprogress nounwind uwtable
define hidden ptr @_ZN6hermes2vm8JSRegExp16createMatchClassERNS0_7RuntimeENS0_6HandleINS0_11HiddenClassEEE(ptr noundef nonnull align 8 dereferenceable(9832) %runtime, ptr %arrayClass.coerce) #0 align 2 {
entry:
  %retval = alloca %"class.hermes::vm::Handle.168", align 8
  %arrayClass = alloca %"class.hermes::vm::Handle.168", align 8
  %runtime.addr = alloca ptr, align 8
  %addProperty = alloca %class.anon, align 8
  %addIndex = alloca %"class.hermes::vm::Handle.168", align 8
  %agg.tmp = alloca %"class.hermes::vm::Handle.168", align 8
  %addInput = alloca %"class.hermes::vm::Handle.168", align 8
  %agg.tmp6 = alloca %"class.hermes::vm::Handle.168", align 8
  %agg.tmp12 = alloca %"class.hermes::vm::Handle.168", align 8
  %coerce.dive = getelementptr inbounds %"class.hermes::vm::Handle.168", ptr %arrayClass, i32 0, i32 0
  %coerce.dive1 = getelementptr inbounds %"class.hermes::vm::HandleBase", ptr %coerce.dive, i32 0, i32 0
  store ptr %arrayClass.coerce, ptr %coerce.dive1, align 8
  store ptr %runtime, ptr %runtime.addr, align 8
  %0 = getelementptr inbounds %class.anon, ptr %addProperty, i32 0, i32 0
  %1 = load ptr, ptr %runtime.addr, align 8
  store ptr %1, ptr %0, align 8
  call void @llvm.memcpy.p0.p0.i64(ptr align 8 %agg.tmp, ptr align 8 %arrayClass, i64 8, i1 false)
  %coerce.dive2 = getelementptr inbounds %"class.hermes::vm::Handle.168", ptr %agg.tmp, i32 0, i32 0
  %coerce.dive3 = getelementptr inbounds %"class.hermes::vm::HandleBase", ptr %coerce.dive2, i32 0, i32 0
  %2 = load ptr, ptr %coerce.dive3, align 8
  %call = call ptr @"_ZZN6hermes2vm8JSRegExp16createMatchClassERNS0_7RuntimeENS0_6HandleINS0_11HiddenClassEEEENK3$_0clES6_NS0_10Predefined3StrE"(ptr noundef nonnull align 8 dereferenceable(8) %addProperty, ptr %2, i32 noundef 323)
  %coerce.dive4 = getelementptr inbounds %"class.hermes::vm::Handle.168", ptr %addIndex, i32 0, i32 0
  %coerce.dive5 = getelementptr inbounds %"class.hermes::vm::HandleBase", ptr %coerce.dive4, i32 0, i32 0
  store ptr %call, ptr %coerce.dive5, align 8
  call void @llvm.memcpy.p0.p0.i64(ptr align 8 %agg.tmp6, ptr align 8 %addIndex, i64 8, i1 false)
  %coerce.dive7 = getelementptr inbounds %"class.hermes::vm::Handle.168", ptr %agg.tmp6, i32 0, i32 0
  %coerce.dive8 = getelementptr inbounds %"class.hermes::vm::HandleBase", ptr %coerce.dive7, i32 0, i32 0
  %3 = load ptr, ptr %coerce.dive8, align 8
  %call9 = call ptr @"_ZZN6hermes2vm8JSRegExp16createMatchClassERNS0_7RuntimeENS0_6HandleINS0_11HiddenClassEEEENK3$_0clES6_NS0_10Predefined3StrE"(ptr noundef nonnull align 8 dereferenceable(8) %addProperty, ptr %3, i32 noundef 324)
  %coerce.dive10 = getelementptr inbounds %"class.hermes::vm::Handle.168", ptr %addInput, i32 0, i32 0
  %coerce.dive11 = getelementptr inbounds %"class.hermes::vm::HandleBase", ptr %coerce.dive10, i32 0, i32 0
  store ptr %call9, ptr %coerce.dive11, align 8
  call void @llvm.memcpy.p0.p0.i64(ptr align 8 %agg.tmp12, ptr align 8 %addInput, i64 8, i1 false)
  %coerce.dive13 = getelementptr inbounds %"class.hermes::vm::Handle.168", ptr %agg.tmp12, i32 0, i32 0
  %coerce.dive14 = getelementptr inbounds %"class.hermes::vm::HandleBase", ptr %coerce.dive13, i32 0, i32 0
  %4 = load ptr, ptr %coerce.dive14, align 8
  %call15 = call ptr @"_ZZN6hermes2vm8JSRegExp16createMatchClassERNS0_7RuntimeENS0_6HandleINS0_11HiddenClassEEEENK3$_0clES6_NS0_10Predefined3StrE"(ptr noundef nonnull align 8 dereferenceable(8) %addProperty, ptr %4, i32 noundef 328)
  %coerce.dive16 = getelementptr inbounds %"class.hermes::vm::Handle.168", ptr %retval, i32 0, i32 0
  %coerce.dive17 = getelementptr inbounds %"class.hermes::vm::HandleBase", ptr %coerce.dive16, i32 0, i32 0
  store ptr %call15, ptr %coerce.dive17, align 8
  %coerce.dive18 = getelementptr inbounds %"class.hermes::vm::Handle.168", ptr %retval, i32 0, i32 0
  %coerce.dive19 = getelementptr inbounds %"class.hermes::vm::HandleBase", ptr %coerce.dive18, i32 0, i32 0
  %5 = load ptr, ptr %coerce.dive19, align 8
  ret ptr %5
}