; Function Attrs: mustprogress nounwind uwtable
define hidden ptr @_ZN6hermes2vm8JSRegExp16createMatchClassERNS0_7RuntimeENS0_6HandleINS0_11HiddenClassEEE(ptr noundef nonnull align 8 dereferenceable(9832) %runtime, ptr %arrayClass.coerce) local_unnamed_addr #0 align 2 {
entry:
  %added.i5 = alloca %"class.hermes::vm::CallResult.241", align 8
  %added.i3 = alloca %"class.hermes::vm::CallResult.241", align 8
  %added.i = alloca %"class.hermes::vm::CallResult.241", align 8
  call void @llvm.lifetime.start.p0(i64 24, ptr nonnull %added.i)
  call void @_ZN6hermes2vm11HiddenClass11addPropertyENS0_6HandleIS1_EERNS0_7RuntimeENS0_8SymbolIDENS0_13PropertyFlagsE(ptr nonnull sret(%"class.hermes::vm::CallResult.241") align 8 %added.i, ptr %arrayClass.coerce, ptr noundef nonnull align 8 dereferenceable(9832) %runtime, i32 323, i16 14) #19
  %retval.sroa.0.0.copyload.i = load ptr, ptr %added.i, align 8
  call void @llvm.lifetime.end.p0(i64 24, ptr nonnull %added.i)
  call void @llvm.lifetime.start.p0(i64 24, ptr nonnull %added.i3)
  call void @_ZN6hermes2vm11HiddenClass11addPropertyENS0_6HandleIS1_EERNS0_7RuntimeENS0_8SymbolIDENS0_13PropertyFlagsE(ptr nonnull sret(%"class.hermes::vm::CallResult.241") align 8 %added.i3, ptr %retval.sroa.0.0.copyload.i, ptr noundef nonnull align 8 dereferenceable(9832) %runtime, i32 324, i16 14) #19
  %retval.sroa.0.0.copyload.i4 = load ptr, ptr %added.i3, align 8
  call void @llvm.lifetime.end.p0(i64 24, ptr nonnull %added.i3)
  call void @llvm.lifetime.start.p0(i64 24, ptr nonnull %added.i5)
  call void @_ZN6hermes2vm11HiddenClass11addPropertyENS0_6HandleIS1_EERNS0_7RuntimeENS0_8SymbolIDENS0_13PropertyFlagsE(ptr nonnull sret(%"class.hermes::vm::CallResult.241") align 8 %added.i5, ptr %retval.sroa.0.0.copyload.i4, ptr noundef nonnull align 8 dereferenceable(9832) %runtime, i32 328, i16 14) #19
  %retval.sroa.0.0.copyload.i6 = load ptr, ptr %added.i5, align 8
  call void @llvm.lifetime.end.p0(i64 24, ptr nonnull %added.i5)
  ret ptr %retval.sroa.0.0.copyload.i6
}